; Function Attrs: mustprogress uwtable
define noundef zeroext i1 @_ZNK6casadi6MatrixINS_6SXElemEE14is_valid_inputEv(ptr noundef nonnull align 8 dereferenceable(40) %0) local_unnamed_addr #3 align 2 {
  %2 = getelementptr inbounds i8, ptr %0, i64 8
  %3 = tail call noundef i64 @_ZNK6casadi8Sparsity3nnzEv(ptr noundef nonnull align 8 dereferenceable(8) %2)
  %4 = icmp slt i64 %3, 1
  br i1 %4, label %._crit_edge, label %.lr.ph

.lr.ph:                                           ; preds = %1
  %5 = getelementptr inbounds i8, ptr %0, i64 16
  %6 = getelementptr inbounds i8, ptr %0, i64 24
  br label %7

7:                                                ; preds = %.lr.ph, %21
  %.08 = phi i64 [ 0, %.lr.ph ], [ %22, %21 ]
  %8 = load ptr, ptr %6, align 8
  %9 = load ptr, ptr %5, align 8
  %10 = ptrtoint ptr %8 to i64
  %11 = ptrtoint ptr %9 to i64
  %12 = sub i64 %10, %11
  %13 = ashr exact i64 %12, 3
  %.not.i.i = icmp ugt i64 %13, %.08
  br i1 %.not.i.i, label %_ZNKSt6vectorIN6casadi6SXElemESaIS1_EE2atEm.exit, label %14

14:                                               ; preds = %7
  tail call void (ptr, ...) @_ZSt24__throw_out_of_range_fmtPKcz(ptr noundef nonnull @.str.470, i64 noundef %.08, i64 noundef %13) #27
  unreachable

_ZNKSt6vectorIN6casadi6SXElemESaIS1_EE2atEm.exit: ; preds = %7
  %15 = getelementptr inbounds %"class.casadi::SXElem", ptr %9, i64 %.08
  %16 = tail call noundef ptr @_ZNK6casadi6SXElemptEv(ptr noundef nonnull align 8 dereferenceable(8) %15)
  %17 = load ptr, ptr %16, align 8
  %18 = getelementptr inbounds i8, ptr %17, i64 32
  %19 = load ptr, ptr %18, align 8
  %20 = tail call noundef zeroext i1 %19(ptr noundef nonnull align 8 dereferenceable(16) %16)
  br i1 %20, label %21, label %._crit_edge

21:                                               ; preds = %_ZNKSt6vectorIN6casadi6SXElemESaIS1_EE2atEm.exit
  %22 = add nuw nsw i64 %.08, 1
  %23 = tail call noundef i64 @_ZNK6casadi8Sparsity3nnzEv(ptr noundef nonnull align 8 dereferenceable(8) %2)
  %.not = icmp slt i64 %22, %23
  br i1 %.not, label %7, label %._crit_edge, !llvm.loop !745

._crit_edge:                                      ; preds = %_ZNKSt6vectorIN6casadi6SXElemESaIS1_EE2atEm.exit, %21, %1
  %.lcssa5 = phi i1 [ true, %1 ], [ %20, %21 ], [ %20, %_ZNKSt6vectorIN6casadi6SXElemESaIS1_EE2atEm.exit ]
  ret i1 %.lcssa5
}